#include <math.h>
#include <stdio.h>
#include <stdlib.h>
#include <string.h>
#include <iostream>
using namespace std;

/*??? 1200012866 11.2*/
int main()
{
	char f,a[100];
	int x=0;
	while((f=getchar())!=EOF){//??
		a[x]=f;
		x++;
	}
	x=x-1;//??????eof
	for(int i=x;i>0;i--)//????????
		if(a[i]==32){
			for(int j=i+1;j<x;j++)
				cout<<a[j];
			cout<<" ";
			x=i;
		}
	for(int j=0;j<x;j++)//??????
		cout<<a[j];			

	return 0;
}